(lp0
(S'cppflags'
p1
ccopy_reg
_reconstructor
p2
(cino.utils
SpaceList
p3
c__builtin__
list
p4
(lp5
S'-mmcu=atmega328p'
p6
aS'-DF_CPU=16000000L'
p7
aS'-DARDUINO=105'
p8
aS'-I/Applications/Arduino.app/Contents/Resources/Java/hardware/arduino/cores/arduino'
p9
aS'-ffunction-sections'
p10
aS'-fdata-sections'
p11
aS'-g'
p12
aS'-Os'
p13
aS'-w'
p14
aS'-I/Applications/Arduino.app/Contents/Resources/Java/hardware/arduino/variants/eightanaloginputs'
p15
aS'-Ilib/Timer'
p16
aS'-Ilib/Rover5'
p17
aS'-Ilib/PID_v1'
p18
aS'-Ilib/PID_v1/Examples'
p19
aS'-Ilib/PID_v1/Examples/PID_AdaptiveTunings'
p20
aS'-Ilib/PID_v1/Examples/PID_Basic'
p21
aS'-Ilib/PID_v1/Examples/PID_RelayOutput'
p22
aS'-Ilib/PinChangeInt'
p23
aS'-Ilib/PinChangeInt/Examples'
p24
aS'-Ilib/PinChangeInt/Examples/ByteBuffer'
p25
aS'-Ilib/PinChangeInt/Examples/GetPSTR'
p26
aS'-Ilib/PinChangeInt/Examples/PinChangeIntExample'
p27
aS'-Ilib/PinChangeInt/Examples/PinChangeIntSpeedTest'
p28
aS'-Ilib/PinChangeInt/Examples/PinChangeIntTest'
p29
aS'-Ilib/PinChangeInt/Examples/PinChangeIntTest2'
p30
aS'-I/Applications/Arduino.app/Contents/Resources/Java/hardware/arduino/cores/arduino'
p31
aS'-I/Applications/Arduino.app/Contents/Resources/Java/hardware/arduino/cores/arduino/avr-libc'
p32
atp33
Rp34
tp35
a(S'cxx'
p36
S'/Applications/Arduino.app/Contents/Resources/Java/hardware/tools/avr/bin/avr-g++'
p37
tp38
a(S'arduino_libraries_dir'
p39
S'/Applications/Arduino.app/Contents/Resources/Java/libraries'
p40
tp41
a(S'avrdude'
p42
S'/Applications/Arduino.app/Contents/Resources/Java/hardware/tools/avr/bin/avrdude'
p43
tp44
a(S'ar'
p45
S'/Applications/Arduino.app/Contents/Resources/Java/hardware/tools/avr/bin/avr-ar'
p46
tp47
a(S'names'
p48
(dp49
S'cpp'
p50
S'%s.cpp'
p51
sS'obj'
p52
S'%s.o'
p53
sS'deps'
p54
S'%s.d'
p55
sS'lib'
p56
S'lib%s.a'
p57
stp58
a(S'ldflags'
p59
g2
(g3
g4
(lp60
g6
aS'-Wl,-Os'
p61
aS'-Wl,--gc-sections'
p62
atp63
Rp64
tp65
a(S'arduino_lib_version'
p66
g2
(cino.environment
Version
p67
c__builtin__
tuple
p68
(I1
I0
I5
tp69
tp70
Rp71
tp72
a(S'objcopy'
p73
S'/Applications/Arduino.app/Contents/Resources/Java/hardware/tools/avr/bin/avr-objcopy'
p74
tp75
a(S'board_models'
p76
cino.environment
BoardModels
p77
((lp78
(lp79
S'uno'
p80
a(dp81
S'bootloader'
p82
(dp83
S'extended_fuses'
p84
S'0x05'
p85
sS'high_fuses'
p86
S'0xde'
p87
sS'low_fuses'
p88
S'0xff'
p89
sS'lock_bits'
p90
S'0x0F'
p91
sS'file'
p92
S'optiboot_atmega328.hex'
p93
sS'path'
p94
S'optiboot'
p95
sS'unlock_bits'
p96
S'0x3F'
p97
ssS'upload'
p98
(dp99
S'protocol'
p100
S'arduino'
p101
sS'maximum_size'
p102
S'32256'
p103
sS'speed'
p104
S'115200'
p105
ssS'build'
p106
(dp107
S'core'
p108
S'arduino'
p109
sS'mcu'
p110
S'atmega328p'
p111
sS'f_cpu'
p112
S'16000000L'
p113
sS'variant'
p114
S'standard'
p115
ssS'name'
p116
S'Arduino Uno'
p117
saa(lp118
S'atmega328'
p119
a(dp120
S'bootloader'
p121
(dp122
S'extended_fuses'
p123
S'0x05'
p124
sS'high_fuses'
p125
S'0xDA'
p126
sS'low_fuses'
p127
S'0xFF'
p128
sS'lock_bits'
p129
S'0x0F'
p130
sS'file'
p131
S'ATmegaBOOT_168_atmega328.hex'
p132
sS'path'
p133
S'atmega'
p134
sS'unlock_bits'
p135
S'0x3F'
p136
ssS'upload'
p137
(dp138
S'protocol'
p139
S'arduino'
p140
sS'maximum_size'
p141
S'30720'
p142
sS'speed'
p143
S'57600'
p144
ssS'build'
p145
(dp146
S'core'
p147
S'arduino'
p148
sS'mcu'
p149
S'atmega328p'
p150
sS'f_cpu'
p151
S'16000000L'
p152
sS'variant'
p153
S'standard'
p154
ssS'name'
p155
S'Arduino Duemilanove w/ ATmega328'
p156
saa(lp157
S'diecimila'
p158
a(dp159
S'bootloader'
p160
(dp161
S'extended_fuses'
p162
S'0x00'
p163
sS'high_fuses'
p164
S'0xdd'
p165
sS'low_fuses'
p166
S'0xff'
p167
sS'lock_bits'
p168
S'0x0F'
p169
sS'file'
p170
S'ATmegaBOOT_168_diecimila.hex'
p171
sS'path'
p172
S'atmega'
p173
sS'unlock_bits'
p174
S'0x3F'
p175
ssS'upload'
p176
(dp177
S'protocol'
p178
S'arduino'
p179
sS'maximum_size'
p180
S'14336'
p181
sS'speed'
p182
S'19200'
p183
ssS'build'
p184
(dp185
S'core'
p186
S'arduino'
p187
sS'mcu'
p188
S'atmega168'
p189
sS'f_cpu'
p190
S'16000000L'
p191
sS'variant'
p192
S'standard'
p193
ssS'name'
p194
S'Arduino Diecimila or Duemilanove w/ ATmega168'
p195
saa(lp196
S'nano328'
p197
a(dp198
S'bootloader'
p199
(dp200
S'extended_fuses'
p201
S'0x05'
p202
sS'high_fuses'
p203
S'0xDA'
p204
sS'low_fuses'
p205
S'0xFF'
p206
sS'lock_bits'
p207
S'0x0F'
p208
sS'file'
p209
S'ATmegaBOOT_168_atmega328.hex'
p210
sS'path'
p211
S'atmega'
p212
sS'unlock_bits'
p213
S'0x3F'
p214
ssS'upload'
p215
(dp216
S'protocol'
p217
S'arduino'
p218
sS'maximum_size'
p219
S'30720'
p220
sS'speed'
p221
S'57600'
p222
ssS'build'
p223
(dp224
S'core'
p225
S'arduino'
p226
sS'mcu'
p227
S'atmega328p'
p228
sS'f_cpu'
p229
S'16000000L'
p230
sS'variant'
p231
S'eightanaloginputs'
p232
ssS'name'
p233
S'Arduino Nano w/ ATmega328'
p234
saa(lp235
S'nano'
p236
a(dp237
S'bootloader'
p238
(dp239
S'extended_fuses'
p240
S'0x00'
p241
sS'high_fuses'
p242
S'0xdd'
p243
sS'low_fuses'
p244
S'0xff'
p245
sS'lock_bits'
p246
S'0x0F'
p247
sS'file'
p248
S'ATmegaBOOT_168_diecimila.hex'
p249
sS'path'
p250
S'atmega'
p251
sS'unlock_bits'
p252
S'0x3F'
p253
ssS'upload'
p254
(dp255
S'protocol'
p256
S'arduino'
p257
sS'maximum_size'
p258
S'14336'
p259
sS'speed'
p260
S'19200'
p261
ssS'build'
p262
(dp263
S'core'
p264
S'arduino'
p265
sS'mcu'
p266
S'atmega168'
p267
sS'f_cpu'
p268
S'16000000L'
p269
sS'variant'
p270
S'eightanaloginputs'
p271
ssS'name'
p272
S'Arduino Nano w/ ATmega168'
p273
saa(lp274
S'mega2560'
p275
a(dp276
S'bootloader'
p277
(dp278
S'extended_fuses'
p279
S'0xFD'
p280
sS'high_fuses'
p281
S'0xD8'
p282
sS'low_fuses'
p283
S'0xFF'
p284
sS'lock_bits'
p285
S'0x0F'
p286
sS'file'
p287
S'stk500boot_v2_mega2560.hex'
p288
sS'path'
p289
S'stk500v2'
p290
sS'unlock_bits'
p291
S'0x3F'
p292
ssS'upload'
p293
(dp294
S'protocol'
p295
S'wiring'
p296
sS'maximum_size'
p297
S'258048'
p298
sS'speed'
p299
S'115200'
p300
ssS'build'
p301
(dp302
S'core'
p303
S'arduino'
p304
sS'mcu'
p305
S'atmega2560'
p306
sS'f_cpu'
p307
S'16000000L'
p308
sS'variant'
p309
S'mega'
p310
ssS'name'
p311
S'Arduino Mega 2560 or Mega ADK'
p312
saa(lp313
S'mega'
p314
a(dp315
S'bootloader'
p316
(dp317
S'extended_fuses'
p318
S'0xF5'
p319
sS'high_fuses'
p320
S'0xDA'
p321
sS'low_fuses'
p322
S'0xFF'
p323
sS'lock_bits'
p324
S'0x0F'
p325
sS'file'
p326
S'ATmegaBOOT_168_atmega1280.hex'
p327
sS'path'
p328
S'atmega'
p329
sS'unlock_bits'
p330
S'0x3F'
p331
ssS'upload'
p332
(dp333
S'protocol'
p334
S'arduino'
p335
sS'maximum_size'
p336
S'126976'
p337
sS'speed'
p338
S'57600'
p339
ssS'build'
p340
(dp341
S'core'
p342
S'arduino'
p343
sS'mcu'
p344
S'atmega1280'
p345
sS'f_cpu'
p346
S'16000000L'
p347
sS'variant'
p348
S'mega'
p349
ssS'name'
p350
S'Arduino Mega (ATmega1280)'
p351
saa(lp352
S'leonardo'
p353
a(dp354
S'bootloader'
p355
(dp356
S'extended_fuses'
p357
S'0xcb'
p358
sS'high_fuses'
p359
S'0xd8'
p360
sS'low_fuses'
p361
S'0xff'
p362
sS'lock_bits'
p363
S'0x2F'
p364
sS'file'
p365
S'Caterina-Leonardo.hex'
p366
sS'path'
p367
S'caterina'
p368
sS'unlock_bits'
p369
S'0x3F'
p370
ssS'upload'
p371
(dp372
S'protocol'
p373
S'avr109'
p374
sS'maximum_size'
p375
S'28672'
p376
sS'speed'
p377
S'57600'
p378
sS'disable_flushing'
p379
S'true'
p380
ssS'build'
p381
(dp382
S'core'
p383
S'arduino'
p384
sS'f_cpu'
p385
S'16000000L'
p386
sS'vid'
p387
S'0x2341'
p388
sS'pid'
p389
S'0x8036'
p390
sS'variant'
p391
S'leonardo'
p392
sS'mcu'
p393
S'atmega32u4'
p394
ssS'name'
p395
S'Arduino Leonardo'
p396
saa(lp397
S'esplora'
p398
a(dp399
S'bootloader'
p400
(dp401
S'extended_fuses'
p402
S'0xcb'
p403
sS'high_fuses'
p404
S'0xd8'
p405
sS'low_fuses'
p406
S'0xff'
p407
sS'lock_bits'
p408
S'0x2F'
p409
sS'file'
p410
S'Caterina-Esplora.hex'
p411
sS'path'
p412
S'caterina'
p413
sS'unlock_bits'
p414
S'0x3F'
p415
ssS'upload'
p416
(dp417
S'protocol'
p418
S'avr109'
p419
sS'maximum_size'
p420
S'28672'
p421
sS'speed'
p422
S'57600'
p423
sS'disable_flushing'
p424
S'true'
p425
ssS'build'
p426
(dp427
S'core'
p428
S'arduino'
p429
sS'f_cpu'
p430
S'16000000L'
p431
sS'vid'
p432
S'0x2341'
p433
sS'pid'
p434
S'0x803C'
p435
sS'variant'
p436
S'leonardo'
p437
sS'mcu'
p438
S'atmega32u4'
p439
ssS'name'
p440
S'Arduino Esplora'
p441
saa(lp442
S'micro'
p443
a(dp444
S'bootloader'
p445
(dp446
S'extended_fuses'
p447
S'0xcb'
p448
sS'high_fuses'
p449
S'0xd8'
p450
sS'low_fuses'
p451
S'0xff'
p452
sS'lock_bits'
p453
S'0x2F'
p454
sS'file'
p455
S'Caterina-Micro.hex'
p456
sS'path'
p457
S'caterina'
p458
sS'unlock_bits'
p459
S'0x3F'
p460
ssS'upload'
p461
(dp462
S'protocol'
p463
S'avr109'
p464
sS'maximum_size'
p465
S'28672'
p466
sS'speed'
p467
S'57600'
p468
sS'disable_flushing'
p469
S'true'
p470
ssS'build'
p471
(dp472
S'core'
p473
S'arduino'
p474
sS'f_cpu'
p475
S'16000000L'
p476
sS'vid'
p477
S'0x2341'
p478
sS'pid'
p479
S'0x8037'
p480
sS'variant'
p481
S'micro'
p482
sS'mcu'
p483
S'atmega32u4'
p484
ssS'name'
p485
S'Arduino Micro'
p486
saa(lp487
S'mini328'
p488
a(dp489
S'bootloader'
p490
(dp491
S'extended_fuses'
p492
S'0x05'
p493
sS'high_fuses'
p494
S'0xd8'
p495
sS'low_fuses'
p496
S'0xff'
p497
sS'lock_bits'
p498
S'0x0F'
p499
sS'file'
p500
S'optiboot_atmega328-Mini.hex'
p501
sS'path'
p502
S'optiboot'
p503
sS'unlock_bits'
p504
S'0x3F'
p505
ssS'upload'
p506
(dp507
S'protocol'
p508
S'arduino'
p509
sS'maximum_size'
p510
S'28672'
p511
sS'speed'
p512
S'115200'
p513
ssS'build'
p514
(dp515
S'core'
p516
S'arduino'
p517
sS'mcu'
p518
S'atmega328p'
p519
sS'f_cpu'
p520
S'16000000L'
p521
sS'variant'
p522
S'eightanaloginputs'
p523
ssS'name'
p524
S'Arduino Mini w/ ATmega328'
p525
saa(lp526
S'mini'
p527
a(dp528
S'bootloader'
p529
(dp530
S'extended_fuses'
p531
S'0x00'
p532
sS'high_fuses'
p533
S'0xdd'
p534
sS'low_fuses'
p535
S'0xff'
p536
sS'lock_bits'
p537
S'0x0F'
p538
sS'file'
p539
S'ATmegaBOOT_168_ng.hex'
p540
sS'path'
p541
S'atmega'
p542
sS'unlock_bits'
p543
S'0x3F'
p544
ssS'upload'
p545
(dp546
S'protocol'
p547
S'arduino'
p548
sS'maximum_size'
p549
S'14336'
p550
sS'speed'
p551
S'19200'
p552
ssS'build'
p553
(dp554
S'core'
p555
S'arduino'
p556
sS'mcu'
p557
S'atmega168'
p558
sS'f_cpu'
p559
S'16000000L'
p560
sS'variant'
p561
S'eightanaloginputs'
p562
ssS'name'
p563
S'Arduino Mini w/ ATmega168'
p564
saa(lp565
S'ethernet'
p566
a(dp567
S'bootloader'
p568
(dp569
S'extended_fuses'
p570
S'0x05'
p571
sS'high_fuses'
p572
S'0xde'
p573
sS'low_fuses'
p574
S'0xff'
p575
sS'lock_bits'
p576
S'0x0F'
p577
sS'file'
p578
S'optiboot_atmega328.hex'
p579
sS'path'
p580
S'optiboot'
p581
sS'unlock_bits'
p582
S'0x3F'
p583
ssS'upload'
p584
(dp585
S'protocol'
p586
S'arduino'
p587
sS'maximum_size'
p588
S'32256'
p589
sS'speed'
p590
S'115200'
p591
ssS'build'
p592
(dp593
S'variant'
p594
S'standard'
p595
sS'mcu'
p596
S'atmega328p'
p597
sS'f_cpu'
p598
S'16000000L'
p599
sS'core'
p600
S'arduino'
p601
ssS'name'
p602
S'Arduino Ethernet'
p603
saa(lp604
S'fio'
p605
a(dp606
S'bootloader'
p607
(dp608
S'extended_fuses'
p609
S'0x05'
p610
sS'high_fuses'
p611
S'0xDA'
p612
sS'low_fuses'
p613
S'0xFF'
p614
sS'lock_bits'
p615
S'0x0F'
p616
sS'file'
p617
S'ATmegaBOOT_168_atmega328_pro_8MHz.hex'
p618
sS'path'
p619
S'arduino:atmega'
p620
sS'unlock_bits'
p621
S'0x3F'
p622
ssS'upload'
p623
(dp624
S'protocol'
p625
S'arduino'
p626
sS'maximum_size'
p627
S'30720'
p628
sS'speed'
p629
S'57600'
p630
ssS'build'
p631
(dp632
S'core'
p633
S'arduino'
p634
sS'mcu'
p635
S'atmega328p'
p636
sS'f_cpu'
p637
S'8000000L'
p638
sS'variant'
p639
S'eightanaloginputs'
p640
ssS'name'
p641
S'Arduino Fio'
p642
saa(lp643
S'bt328'
p644
a(dp645
S'bootloader'
p646
(dp647
S'extended_fuses'
p648
S'0x05'
p649
sS'high_fuses'
p650
S'0xd8'
p651
sS'low_fuses'
p652
S'0xff'
p653
sS'lock_bits'
p654
S'0x0F'
p655
sS'file'
p656
S'ATmegaBOOT_168_atmega328_bt.hex'
p657
sS'path'
p658
S'bt'
p659
sS'unlock_bits'
p660
S'0x3F'
p661
ssS'upload'
p662
(dp663
S'protocol'
p664
S'arduino'
p665
sS'maximum_size'
p666
S'28672'
p667
sS'speed'
p668
S'19200'
p669
sS'disable_flushing'
p670
S'true'
p671
ssS'build'
p672
(dp673
S'core'
p674
S'arduino'
p675
sS'mcu'
p676
S'atmega328p'
p677
sS'f_cpu'
p678
S'16000000L'
p679
sS'variant'
p680
S'eightanaloginputs'
p681
ssS'name'
p682
S'Arduino BT w/ ATmega328'
p683
saa(lp684
S'bt'
p685
a(dp686
S'bootloader'
p687
(dp688
S'extended_fuses'
p689
S'0x00'
p690
sS'high_fuses'
p691
S'0xdd'
p692
sS'low_fuses'
p693
S'0xff'
p694
sS'lock_bits'
p695
S'0x0F'
p696
sS'file'
p697
S'ATmegaBOOT_168.hex'
p698
sS'path'
p699
S'bt'
p700
sS'unlock_bits'
p701
S'0x3F'
p702
ssS'upload'
p703
(dp704
S'protocol'
p705
S'arduino'
p706
sS'maximum_size'
p707
S'14336'
p708
sS'speed'
p709
S'19200'
p710
sS'disable_flushing'
p711
S'true'
p712
ssS'build'
p713
(dp714
S'core'
p715
S'arduino'
p716
sS'mcu'
p717
S'atmega168'
p718
sS'f_cpu'
p719
S'16000000L'
p720
sS'variant'
p721
S'eightanaloginputs'
p722
ssS'name'
p723
S'Arduino BT w/ ATmega168'
p724
saa(lp725
S'LilyPadUSB'
p726
a(dp727
S'bootloader'
p728
(dp729
S'extended_fuses'
p730
S'0xce'
p731
sS'high_fuses'
p732
S'0xd8'
p733
sS'low_fuses'
p734
S'0xff'
p735
sS'lock_bits'
p736
S'0x2F'
p737
sS'file'
p738
S'Caterina-LilyPadUSB.hex'
p739
sS'path'
p740
S'caterina-LilyPadUSB'
p741
sS'unlock_bits'
p742
S'0x3F'
p743
ssS'upload'
p744
(dp745
S'protocol'
p746
S'avr109'
p747
sS'maximum_size'
p748
S'28672'
p749
sS'speed'
p750
S'57600'
p751
sS'disable_flushing'
p752
S'true'
p753
ssS'build'
p754
(dp755
S'core'
p756
S'arduino'
p757
sS'f_cpu'
p758
S'8000000L'
p759
sS'vid'
p760
S'0x1B4F'
p761
sS'pid'
p762
S'0x9208'
p763
sS'variant'
p764
S'leonardo'
p765
sS'mcu'
p766
S'atmega32u4'
p767
ssS'name'
p768
S'LilyPad Arduino USB'
p769
saa(lp770
S'lilypad328'
p771
a(dp772
S'bootloader'
p773
(dp774
S'extended_fuses'
p775
S'0x05'
p776
sS'high_fuses'
p777
S'0xDA'
p778
sS'low_fuses'
p779
S'0xFF'
p780
sS'lock_bits'
p781
S'0x0F'
p782
sS'file'
p783
S'ATmegaBOOT_168_atmega328_pro_8MHz.hex'
p784
sS'path'
p785
S'atmega'
p786
sS'unlock_bits'
p787
S'0x3F'
p788
ssS'upload'
p789
(dp790
S'protocol'
p791
S'arduino'
p792
sS'maximum_size'
p793
S'30720'
p794
sS'speed'
p795
S'57600'
p796
ssS'build'
p797
(dp798
S'core'
p799
S'arduino'
p800
sS'mcu'
p801
S'atmega328p'
p802
sS'f_cpu'
p803
S'8000000L'
p804
sS'variant'
p805
S'standard'
p806
ssS'name'
p807
S'LilyPad Arduino w/ ATmega328'
p808
saa(lp809
S'lilypad'
p810
a(dp811
S'bootloader'
p812
(dp813
S'extended_fuses'
p814
S'0x00'
p815
sS'high_fuses'
p816
S'0xdd'
p817
sS'low_fuses'
p818
S'0xe2'
p819
sS'lock_bits'
p820
S'0x0F'
p821
sS'file'
p822
S'LilyPadBOOT_168.hex'
p823
sS'path'
p824
S'lilypad'
p825
sS'unlock_bits'
p826
S'0x3F'
p827
ssS'upload'
p828
(dp829
S'protocol'
p830
S'arduino'
p831
sS'maximum_size'
p832
S'14336'
p833
sS'speed'
p834
S'19200'
p835
ssS'build'
p836
(dp837
S'core'
p838
S'arduino'
p839
sS'mcu'
p840
S'atmega168'
p841
sS'f_cpu'
p842
S'8000000L'
p843
sS'variant'
p844
S'standard'
p845
ssS'name'
p846
S'LilyPad Arduino w/ ATmega168'
p847
saa(lp848
S'pro5v328'
p849
a(dp850
S'bootloader'
p851
(dp852
S'extended_fuses'
p853
S'0x05'
p854
sS'high_fuses'
p855
S'0xDA'
p856
sS'low_fuses'
p857
S'0xFF'
p858
sS'lock_bits'
p859
S'0x0F'
p860
sS'file'
p861
S'ATmegaBOOT_168_atmega328.hex'
p862
sS'path'
p863
S'atmega'
p864
sS'unlock_bits'
p865
S'0x3F'
p866
ssS'upload'
p867
(dp868
S'protocol'
p869
S'arduino'
p870
sS'maximum_size'
p871
S'30720'
p872
sS'speed'
p873
S'57600'
p874
ssS'build'
p875
(dp876
S'core'
p877
S'arduino'
p878
sS'mcu'
p879
S'atmega328p'
p880
sS'f_cpu'
p881
S'16000000L'
p882
sS'variant'
p883
S'standard'
p884
ssS'name'
p885
S'Arduino Pro or Pro Mini (5V, 16 MHz) w/ ATmega328'
p886
saa(lp887
S'pro5v'
p888
a(dp889
S'bootloader'
p890
(dp891
S'extended_fuses'
p892
S'0x00'
p893
sS'high_fuses'
p894
S'0xdd'
p895
sS'low_fuses'
p896
S'0xff'
p897
sS'lock_bits'
p898
S'0x0F'
p899
sS'file'
p900
S'ATmegaBOOT_168_diecimila.hex'
p901
sS'path'
p902
S'atmega'
p903
sS'unlock_bits'
p904
S'0x3F'
p905
ssS'upload'
p906
(dp907
S'protocol'
p908
S'arduino'
p909
sS'maximum_size'
p910
S'14336'
p911
sS'speed'
p912
S'19200'
p913
ssS'build'
p914
(dp915
S'core'
p916
S'arduino'
p917
sS'mcu'
p918
S'atmega168'
p919
sS'f_cpu'
p920
S'16000000L'
p921
sS'variant'
p922
S'standard'
p923
ssS'name'
p924
S'Arduino Pro or Pro Mini (5V, 16 MHz) w/ ATmega168'
p925
saa(lp926
S'pro328'
p927
a(dp928
S'bootloader'
p929
(dp930
S'extended_fuses'
p931
S'0x05'
p932
sS'high_fuses'
p933
S'0xDA'
p934
sS'low_fuses'
p935
S'0xFF'
p936
sS'lock_bits'
p937
S'0x0F'
p938
sS'file'
p939
S'ATmegaBOOT_168_atmega328_pro_8MHz.hex'
p940
sS'path'
p941
S'atmega'
p942
sS'unlock_bits'
p943
S'0x3F'
p944
ssS'upload'
p945
(dp946
S'protocol'
p947
S'arduino'
p948
sS'maximum_size'
p949
S'30720'
p950
sS'speed'
p951
S'57600'
p952
ssS'build'
p953
(dp954
S'core'
p955
S'arduino'
p956
sS'mcu'
p957
S'atmega328p'
p958
sS'f_cpu'
p959
S'8000000L'
p960
sS'variant'
p961
S'standard'
p962
ssS'name'
p963
S'Arduino Pro or Pro Mini (3.3V, 8 MHz) w/ ATmega328'
p964
saa(lp965
S'pro'
p966
a(dp967
S'bootloader'
p968
(dp969
S'extended_fuses'
p970
S'0x00'
p971
sS'high_fuses'
p972
S'0xdd'
p973
sS'low_fuses'
p974
S'0xc6'
p975
sS'lock_bits'
p976
S'0x0F'
p977
sS'file'
p978
S'ATmegaBOOT_168_pro_8MHz.hex'
p979
sS'path'
p980
S'atmega'
p981
sS'unlock_bits'
p982
S'0x3F'
p983
ssS'upload'
p984
(dp985
S'protocol'
p986
S'arduino'
p987
sS'maximum_size'
p988
S'14336'
p989
sS'speed'
p990
S'19200'
p991
ssS'build'
p992
(dp993
S'core'
p994
S'arduino'
p995
sS'mcu'
p996
S'atmega168'
p997
sS'f_cpu'
p998
S'8000000L'
p999
sS'variant'
p1000
S'standard'
p1001
ssS'name'
p1002
S'Arduino Pro or Pro Mini (3.3V, 8 MHz) w/ ATmega168'
p1003
saa(lp1004
S'atmega168'
p1005
a(dp1006
S'bootloader'
p1007
(dp1008
S'extended_fuses'
p1009
S'0x00'
p1010
sS'high_fuses'
p1011
S'0xdd'
p1012
sS'low_fuses'
p1013
S'0xff'
p1014
sS'lock_bits'
p1015
S'0x0F'
p1016
sS'file'
p1017
S'ATmegaBOOT_168_ng.hex'
p1018
sS'path'
p1019
S'atmega'
p1020
sS'unlock_bits'
p1021
S'0x3F'
p1022
ssS'upload'
p1023
(dp1024
S'protocol'
p1025
S'arduino'
p1026
sS'maximum_size'
p1027
S'14336'
p1028
sS'speed'
p1029
S'19200'
p1030
ssS'build'
p1031
(dp1032
S'core'
p1033
S'arduino'
p1034
sS'mcu'
p1035
S'atmega168'
p1036
sS'f_cpu'
p1037
S'16000000L'
p1038
sS'variant'
p1039
S'standard'
p1040
ssS'name'
p1041
S'Arduino NG or older w/ ATmega168'
p1042
saa(lp1043
S'atmega8'
p1044
a(dp1045
S'bootloader'
p1046
(dp1047
S'high_fuses'
p1048
S'0xca'
p1049
sS'low_fuses'
p1050
S'0xdf'
p1051
sS'lock_bits'
p1052
S'0x0F'
p1053
sS'file'
p1054
S'ATmegaBOOT-prod-firmware-2009-11-07.hex'
p1055
sS'path'
p1056
S'atmega8'
p1057
sS'unlock_bits'
p1058
S'0x3F'
p1059
ssS'upload'
p1060
(dp1061
S'protocol'
p1062
S'arduino'
p1063
sS'maximum_size'
p1064
S'7168'
p1065
sS'speed'
p1066
S'19200'
p1067
ssS'build'
p1068
(dp1069
S'core'
p1070
S'arduino'
p1071
sS'mcu'
p1072
S'atmega8'
p1073
sS'f_cpu'
p1074
S'16000000L'
p1075
sS'variant'
p1076
S'standard'
p1077
ssS'name'
p1078
S'Arduino NG or older w/ ATmega8'
p1079
saa(lp1080
S'robotControl'
p1081
a(dp1082
S'bootloader'
p1083
(dp1084
S'extended_fuses'
p1085
S'0xcb'
p1086
sS'high_fuses'
p1087
S'0xd8'
p1088
sS'low_fuses'
p1089
S'0xff'
p1090
sS'lock_bits'
p1091
S'0x2F'
p1092
sS'file'
p1093
S'Caterina-Robot-Control.hex'
p1094
sS'path'
p1095
S'caterina-Arduino_Robot'
p1096
sS'unlock_bits'
p1097
S'0x3F'
p1098
ssS'upload'
p1099
(dp1100
S'protocol'
p1101
S'avr109'
p1102
sS'maximum_size'
p1103
S'28672'
p1104
sS'speed'
p1105
S'57600'
p1106
sS'disable_flushing'
p1107
S'true'
p1108
ssS'build'
p1109
(dp1110
S'core'
p1111
S'robot'
p1112
sS'f_cpu'
p1113
S'16000000L'
p1114
sS'vid'
p1115
S'0x2341'
p1116
sS'pid'
p1117
S'0x8038'
p1118
sS'variant'
p1119
S'robot_control'
p1120
sS'mcu'
p1121
S'atmega32u4'
p1122
ssS'name'
p1123
S'Arduino Robot Control'
p1124
saa(lp1125
S'robotMotor'
p1126
a(dp1127
S'bootloader'
p1128
(dp1129
S'extended_fuses'
p1130
S'0xcb'
p1131
sS'high_fuses'
p1132
S'0xd8'
p1133
sS'low_fuses'
p1134
S'0xff'
p1135
sS'lock_bits'
p1136
S'0x2F'
p1137
sS'file'
p1138
S'Caterina-Robot-Motor.hex'
p1139
sS'path'
p1140
S'caterina-Arduino_Robot'
p1141
sS'unlock_bits'
p1142
S'0x3F'
p1143
ssS'upload'
p1144
(dp1145
S'protocol'
p1146
S'avr109'
p1147
sS'maximum_size'
p1148
S'28672'
p1149
sS'speed'
p1150
S'57600'
p1151
sS'disable_flushing'
p1152
S'true'
p1153
ssS'build'
p1154
(dp1155
S'core'
p1156
S'robot'
p1157
sS'f_cpu'
p1158
S'16000000L'
p1159
sS'vid'
p1160
S'0x2341'
p1161
sS'pid'
p1162
S'0x8039'
p1163
sS'variant'
p1164
S'robot_motor'
p1165
sS'mcu'
p1166
S'atmega32u4'
p1167
ssS'name'
p1168
S'Arduino Robot Motor'
p1169
saatp1170
Rp1171
(dp1172
S'default'
p1173
S'uno'
p1174
sbtp1175
a(S'used_libs'
p1176
(lp1177
S'lib/Timer'
p1178
aS'lib/Rover5'
p1179
aS'lib/PID_v1'
p1180
aS'lib/PinChangeInt'
p1181
aS'/Applications/Arduino.app/Contents/Resources/Java/hardware/arduino/cores/arduino'
p1182
atp1183
a(S'make'
p1184
S'/Applications/Arduino.app/Contents/Resources/Java/hardware/tools/avr/bin/make'
p1185
tp1186
a(S'build_dir'
p1187
S'.build/nano328'
p1188
tp1189
a(S'cc'
p1190
S'/Applications/Arduino.app/Contents/Resources/Java/hardware/tools/avr/bin/avr-gcc'
p1191
tp1192
a(S'cflags'
p1193
g2
(g3
g4
(lp1194
tp1195
Rp1196
tp1197
a(S'cxxflags'
p1198
g2
(g3
g4
(lp1199
S'-fno-exceptions'
p1200
atp1201
Rp1202
tp1203
a(S'arduino_variants_dir'
p1204
S'/Applications/Arduino.app/Contents/Resources/Java/hardware/arduino/variants'
p1205
tp1206
a(S'serial'
p1207
S'/opt/local/bin/picocom'
p1208
tp1209
a(S'stty'
p1210
S'/bin/stty'
p1211
tp1212
a(S'version.txt'
p1213
S'/Applications/Arduino.app/Contents/Resources/Java/lib/version.txt'
p1214
tp1215
a(S'arduino_core_dir'
p1216
g1182
tp1217
a(S'boards.txt'
p1218
S'/Applications/Arduino.app/Contents/Resources/Java/hardware/arduino/boards.txt'
p1219
tp1220
a(S'avrdude.conf'
p1221
S'/Applications/Arduino.app/Contents/Resources/Java/hardware/tools/avr/etc/avrdude.conf'
p1222
tp1223
a(S'deps'
p1224
g2
(g3
g4
(lp1225
S'.build/nano328/src/dependencies.d'
p1226
aS'.build/nano328/arduino/dependencies.d'
p1227
aS'.build/nano328/Timer/dependencies.d'
p1228
aS'.build/nano328/Rover5/dependencies.d'
p1229
aS'.build/nano328/PID_v1/dependencies.d'
p1230
aS'.build/nano328/PinChangeInt/dependencies.d'
p1231
atp1232
Rp1233
tp1234
a.